; Function Attrs: mustprogress nounwind uwtable
define dso_local void @_ZNK5clang6driver6Driver25generatePrefixedToolNamesEN4llvm9StringRefERKNS0_9ToolChainERNS2_15SmallVectorImplINSt7__cxx1112basic_stringIcSt11char_traitsIcESaIcEEEEE(ptr noundef nonnull align 8 dereferenceable(1192) %0, ptr %1, i64 %2, ptr nocapture noundef nonnull readnone align 8 dereferenceable(2168) %3, ptr noundef nonnull align 8 dereferenceable(16) %4) local_unnamed_addr #0 align 2 {
_ZN4llvmplERKNS_5TwineES2_.exit:
  %5 = alloca %"class.llvm::StringRef", align 8
  %6 = alloca %"class.std::__cxx11::basic_string", align 8
  %7 = alloca %"class.llvm::Twine", align 8
  %8 = alloca %"class.std::__cxx11::basic_string", align 8
  store ptr %1, ptr %5, align 8
  %9 = getelementptr inbounds nuw i8, ptr %5, i64 8
  store i64 %2, ptr %9, align 8
  %10 = getelementptr inbounds nuw i8, ptr %0, i64 920
  call void @_ZNSt7__cxx1112basic_stringIcSt11char_traitsIcESaIcEEC1ERKS4_(ptr noundef nonnull align 8 dereferenceable(32) %8, ptr noundef nonnull align 8 dereferenceable(32) %10) #30
  %11 = call noundef nonnull align 8 dereferenceable(32) ptr @_ZNSt7__cxx1112basic_stringIcSt11char_traitsIcESaIcEE6appendEPKc(ptr noundef nonnull align 8 dereferenceable(32) %8, ptr noundef nonnull @.str.12) #30
  store ptr %8, ptr %7, align 8, !alias.scope !1536
  %12 = getelementptr inbounds nuw i8, ptr %7, i64 16
  store ptr %1, ptr %12, align 8, !alias.scope !1536
  %.sroa.2.0..sroa_idx.i.i.i = getelementptr inbounds i8, ptr %7, i64 24
  store i64 %2, ptr %.sroa.2.0..sroa_idx.i.i.i, align 8, !alias.scope !1536
  %13 = getelementptr inbounds nuw i8, ptr %7, i64 32
  store i8 4, ptr %13, align 8, !alias.scope !1536
  %14 = getelementptr inbounds nuw i8, ptr %7, i64 33
  store i8 5, ptr %14, align 1, !alias.scope !1536
  call void @_ZNK4llvm5Twine3strB5cxx11Ev(ptr dead_on_unwind nonnull writable sret(%"class.std::__cxx11::basic_string") align 8 %6, ptr noundef nonnull align 8 dereferenceable(34) %7) #30
  %15 = call noundef nonnull align 8 dereferenceable(32) ptr @_ZN4llvm15SmallVectorImplINSt7__cxx1112basic_stringIcSt11char_traitsIcESaIcEEEE12emplace_backIJS6_EEERS6_DpOT_(ptr noundef nonnull align 8 dereferenceable(16) %4, ptr noundef nonnull align 8 dereferenceable(32) %6)
  call void @_ZNSt7__cxx1112basic_stringIcSt11char_traitsIcESaIcEED1Ev(ptr noundef nonnull align 8 dereferenceable(32) %6) #30
  call void @_ZNSt7__cxx1112basic_stringIcSt11char_traitsIcESaIcEED1Ev(ptr noundef nonnull align 8 dereferenceable(32) %8) #30
  %16 = call noundef nonnull align 8 dereferenceable(32) ptr @_ZN4llvm15SmallVectorImplINSt7__cxx1112basic_stringIcSt11char_traitsIcESaIcEEEE12emplace_backIJRNS_9StringRefEEEERS6_DpOT_(ptr noundef nonnull align 8 dereferenceable(16) %4, ptr noundef nonnull align 8 dereferenceable(16) %5)
  ret void
}